target datalayout = "e-m:e-p270:32:32-p271:32:32-p272:64:64-i64:64-i128:128-f80:128-n8:16:32:64-S128"
target triple = "x86_64-pc-linux-gnu"

@.str = private unnamed_addr constant [25 x i8] c"../openssl/test/ectest.c\00", align 1
@.str.27 = private unnamed_addr constant [2 x i8] c"0\00", align 1
@.str.103 = private unnamed_addr constant [2 x i8] c"1\00", align 1
@.str.134 = private unnamed_addr constant [4 x i8] c"len\00", align 1
@.str.287 = private unnamed_addr constant [19 x i8] c"BN_dec2bn(&x, \220\22)\00", align 1
@.str.288 = private unnamed_addr constant [19 x i8] c"BN_dec2bn(&y, \221\22)\00", align 1
@.str.289 = private unnamed_addr constant [50 x i8] c"group = EC_GROUP_new_by_curve_name(NID_sect571k1)\00", align 1
@.str.290 = private unnamed_addr constant [28 x i8] c"point = EC_POINT_new(group)\00", align 1
@.str.291 = private unnamed_addr constant [58 x i8] c"EC_POINT_set_affine_coordinates(group, point, x, y, NULL)\00", align 1
@.str.292 = private unnamed_addr constant [81 x i8] c"(len = EC_POINT_point2oct(group, point, POINT_CONVERSION_HYBRID, NULL, 0, NULL))\00", align 1
@.str.293 = private unnamed_addr constant [26 x i8] c"buf = OPENSSL_malloc(len)\00", align 1
@.str.294 = private unnamed_addr constant [74 x i8] c"EC_POINT_point2oct(group, point, POINT_CONVERSION_HYBRID, buf, len, NULL)\00", align 1
@.str.295 = private unnamed_addr constant [49 x i8] c"EC_POINT_oct2point(group, point, buf, len, NULL)\00", align 1

; Function Attrs: nounwind uwtable
define internal i32 @hybrid_point_encoding_test() #0 {
  %1 = alloca ptr, align 8
  %2 = alloca ptr, align 8
  %3 = alloca ptr, align 8
  %4 = alloca ptr, align 8
  %5 = alloca ptr, align 8
  %6 = alloca i64, align 8
  %7 = alloca i32, align 4
  call void @llvm.lifetime.start.p0(i64 8, ptr %1) #7
  store ptr null, ptr %1, align 8, !tbaa !26
  call void @llvm.lifetime.start.p0(i64 8, ptr %2) #7
  store ptr null, ptr %2, align 8, !tbaa !26
  call void @llvm.lifetime.start.p0(i64 8, ptr %3) #7
  store ptr null, ptr %3, align 8, !tbaa !10
  call void @llvm.lifetime.start.p0(i64 8, ptr %4) #7
  store ptr null, ptr %4, align 8, !tbaa !24
  call void @llvm.lifetime.start.p0(i64 8, ptr %5) #7
  store ptr null, ptr %5, align 8, !tbaa !14
  call void @llvm.lifetime.start.p0(i64 8, ptr %6) #7
  call void @llvm.lifetime.start.p0(i64 4, ptr %7) #7
  store i32 0, ptr %7, align 4, !tbaa !16
  %8 = call i32 @BN_dec2bn(ptr noundef %1, ptr noundef @.str.27)
  %9 = icmp ne i32 %8, 0
  %10 = zext i1 %9 to i32
  %11 = call i32 @test_true(ptr noundef @.str, i32 noundef 1096, ptr noundef @.str.287, i32 noundef %10)
  %12 = icmp ne i32 %11, 0
  br i1 %12, label %13, label %58

13:                                               ; preds = %0
  %14 = call i32 @BN_dec2bn(ptr noundef %2, ptr noundef @.str.103)
  %15 = icmp ne i32 %14, 0
  %16 = zext i1 %15 to i32
  %17 = call i32 @test_true(ptr noundef @.str, i32 noundef 1097, ptr noundef @.str.288, i32 noundef %16)
  %18 = icmp ne i32 %17, 0
  br i1 %18, label %19, label %58

19:                                               ; preds = %13
  %20 = call ptr @EC_GROUP_new_by_curve_name(i32 noundef 733)
  store ptr %20, ptr %3, align 8, !tbaa !10
  %21 = call i32 @test_ptr(ptr noundef @.str, i32 noundef 1098, ptr noundef @.str.289, ptr noundef %20)
  %22 = icmp ne i32 %21, 0
  br i1 %22, label %23, label %58

23:                                               ; preds = %19
  %24 = load ptr, ptr %3, align 8, !tbaa !10
  %25 = call ptr @EC_POINT_new(ptr noundef %24)
  store ptr %25, ptr %4, align 8, !tbaa !24
  %26 = call i32 @test_ptr(ptr noundef @.str, i32 noundef 1099, ptr noundef @.str.290, ptr noundef %25)
  %27 = icmp ne i32 %26, 0
  br i1 %27, label %28, label %58

28:                                               ; preds = %23
  %29 = load ptr, ptr %3, align 8, !tbaa !10
  %30 = load ptr, ptr %4, align 8, !tbaa !24
  %31 = load ptr, ptr %1, align 8, !tbaa !26
  %32 = load ptr, ptr %2, align 8, !tbaa !26
  %33 = call i32 @EC_POINT_set_affine_coordinates(ptr noundef %29, ptr noundef %30, ptr noundef %31, ptr noundef %32, ptr noundef null)
  %34 = icmp ne i32 %33, 0
  %35 = zext i1 %34 to i32
  %36 = call i32 @test_true(ptr noundef @.str, i32 noundef 1100, ptr noundef @.str.291, i32 noundef %35)
  %37 = icmp ne i32 %36, 0
  br i1 %37, label %38, label %58

38:                                               ; preds = %28
  %39 = load ptr, ptr %3, align 8, !tbaa !10
  %40 = load ptr, ptr %4, align 8, !tbaa !24
  %41 = call i64 @EC_POINT_point2oct(ptr noundef %39, ptr noundef %40, i32 noundef 6, ptr noundef null, i64 noundef 0, ptr noundef null)
  store i64 %41, ptr %6, align 8, !tbaa !4
  %42 = call i32 @test_size_t_ne(ptr noundef @.str, i32 noundef 1106, ptr noundef @.str.27, ptr noundef @.str.292, i64 noundef 0, i64 noundef %41)
  %43 = icmp ne i32 %42, 0
  br i1 %43, label %44, label %58

44:                                               ; preds = %38
  %45 = load i64, ptr %6, align 8, !tbaa !4
  %46 = call noalias ptr @CRYPTO_malloc(i64 noundef %45, ptr noundef @.str, i32 noundef 1107)
  store ptr %46, ptr %5, align 8, !tbaa !14
  %47 = call i32 @test_ptr(ptr noundef @.str, i32 noundef 1107, ptr noundef @.str.293, ptr noundef %46)
  %48 = icmp ne i32 %47, 0
  br i1 %48, label %49, label %58

49:                                               ; preds = %44
  %50 = load i64, ptr %6, align 8, !tbaa !4
  %51 = load ptr, ptr %3, align 8, !tbaa !10
  %52 = load ptr, ptr %4, align 8, !tbaa !24
  %53 = load ptr, ptr %5, align 8, !tbaa !14
  %54 = load i64, ptr %6, align 8, !tbaa !4
  %55 = call i64 @EC_POINT_point2oct(ptr noundef %51, ptr noundef %52, i32 noundef 6, ptr noundef %53, i64 noundef %54, ptr noundef null)
  %56 = call i32 @test_size_t_eq(ptr noundef @.str, i32 noundef 1113, ptr noundef @.str.134, ptr noundef @.str.294, i64 noundef %50, i64 noundef %55)
  %57 = icmp ne i32 %56, 0
  br i1 %57, label %59, label %58

58:                                               ; preds = %49, %44, %38, %28, %23, %19, %13, %0
  br label %88

59:                                               ; preds = %49
  store i32 1, ptr %7, align 4, !tbaa !16
  %60 = load ptr, ptr %3, align 8, !tbaa !10
  %61 = load ptr, ptr %4, align 8, !tbaa !24
  %62 = load ptr, ptr %5, align 8, !tbaa !14
  %63 = load i64, ptr %6, align 8, !tbaa !4
  %64 = call i32 @EC_POINT_oct2point(ptr noundef %60, ptr noundef %61, ptr noundef %62, i64 noundef %63, ptr noundef null)
  %65 = icmp ne i32 %64, 0
  %66 = zext i1 %65 to i32
  %67 = call i32 @test_true(ptr noundef @.str, i32 noundef 1119, ptr noundef @.str.295, i32 noundef %66)
  %68 = icmp ne i32 %67, 0
  br i1 %68, label %70, label %69

69:                                               ; preds = %59
  store i32 0, ptr %7, align 4, !tbaa !16
  br label %70

70:                                               ; preds = %69, %59
  %71 = load ptr, ptr %5, align 8, !tbaa !14
  %72 = getelementptr inbounds i8, ptr %71, i64 0
  %73 = load i8, ptr %72, align 1, !tbaa !30
  %74 = zext i8 %73 to i32
  %75 = xor i32 %74, 1
  %76 = trunc i32 %75 to i8
  store i8 %76, ptr %72, align 1, !tbaa !30
  %77 = load ptr, ptr %3, align 8, !tbaa !10
  %78 = load ptr, ptr %4, align 8, !tbaa !24
  %79 = load ptr, ptr %5, align 8, !tbaa !14
  %80 = load i64, ptr %6, align 8, !tbaa !4
  %81 = call i32 @EC_POINT_oct2point(ptr noundef %77, ptr noundef %78, ptr noundef %79, i64 noundef %80, ptr noundef null)
  %82 = icmp ne i32 %81, 0
  %83 = zext i1 %82 to i32
  %84 = call i32 @test_false(ptr noundef @.str, i32 noundef 1124, ptr noundef @.str.295, i32 noundef %83)
  %85 = icmp ne i32 %84, 0
  br i1 %85, label %87, label %86

86:                                               ; preds = %70
  store i32 0, ptr %7, align 4, !tbaa !16
  br label %87

87:                                               ; preds = %86, %70
  br label %88

88:                                               ; preds = %87, %58
  %89 = load ptr, ptr %1, align 8, !tbaa !26
  call void @BN_free(ptr noundef %89)
  %90 = load ptr, ptr %2, align 8, !tbaa !26
  call void @BN_free(ptr noundef %90)
  %91 = load ptr, ptr %3, align 8, !tbaa !10
  call void @EC_GROUP_free(ptr noundef %91)
  %92 = load ptr, ptr %4, align 8, !tbaa !24
  call void @EC_POINT_free(ptr noundef %92)
  %93 = load ptr, ptr %5, align 8, !tbaa !14
  call void @CRYPTO_free(ptr noundef %93, ptr noundef @.str, i32 noundef 1132)
  %94 = load i32, ptr %7, align 4, !tbaa !16
  call void @llvm.lifetime.end.p0(i64 4, ptr %7) #7
  call void @llvm.lifetime.end.p0(i64 8, ptr %6) #7
  call void @llvm.lifetime.end.p0(i64 8, ptr %5) #7
  call void @llvm.lifetime.end.p0(i64 8, ptr %4) #7
  call void @llvm.lifetime.end.p0(i64 8, ptr %3) #7
  call void @llvm.lifetime.end.p0(i64 8, ptr %2) #7
  call void @llvm.lifetime.end.p0(i64 8, ptr %1) #7
  ret i32 %94
}