; Function Attrs: nounwind uwtable
define internal range(i32 0, 2) i32 @hybrid_point_encoding_test() #0 {
  %1 = alloca ptr, align 8
  %2 = alloca ptr, align 8
  call void @llvm.lifetime.start.p0(i64 8, ptr nonnull %1) #7
  store ptr null, ptr %1, align 8, !tbaa !12
  call void @llvm.lifetime.start.p0(i64 8, ptr nonnull %2) #7
  store ptr null, ptr %2, align 8, !tbaa !12
  %3 = call i32 @BN_dec2bn(ptr noundef nonnull %1, ptr noundef nonnull @.str.27) #7
  %4 = icmp ne i32 %3, 0
  %5 = zext i1 %4 to i32
  %6 = call i32 @test_true(ptr noundef nonnull @.str, i32 noundef 1096, ptr noundef nonnull @.str.287, i32 noundef %5) #7
  %.not = icmp eq i32 %6, 0
  br i1 %.not, label %45, label %7

7:                                                ; preds = %0
  %8 = call i32 @BN_dec2bn(ptr noundef nonnull %2, ptr noundef nonnull @.str.103) #7
  %9 = icmp ne i32 %8, 0
  %10 = zext i1 %9 to i32
  %11 = call i32 @test_true(ptr noundef nonnull @.str, i32 noundef 1097, ptr noundef nonnull @.str.288, i32 noundef %10) #7
  %.not26 = icmp eq i32 %11, 0
  br i1 %.not26, label %45, label %12

12:                                               ; preds = %7
  %13 = call ptr @EC_GROUP_new_by_curve_name(i32 noundef 733) #7
  %14 = call i32 @test_ptr(ptr noundef nonnull @.str, i32 noundef 1098, ptr noundef nonnull @.str.289, ptr noundef %13) #7
  %.not27 = icmp eq i32 %14, 0
  br i1 %.not27, label %45, label %15

15:                                               ; preds = %12
  %16 = call ptr @EC_POINT_new(ptr noundef %13) #7
  %17 = call i32 @test_ptr(ptr noundef nonnull @.str, i32 noundef 1099, ptr noundef nonnull @.str.290, ptr noundef %16) #7
  %.not28 = icmp eq i32 %17, 0
  br i1 %.not28, label %45, label %18

18:                                               ; preds = %15
  %19 = load ptr, ptr %1, align 8, !tbaa !12
  %20 = load ptr, ptr %2, align 8, !tbaa !12
  %21 = call i32 @EC_POINT_set_affine_coordinates(ptr noundef %13, ptr noundef %16, ptr noundef %19, ptr noundef %20, ptr noundef null) #7
  %22 = icmp ne i32 %21, 0
  %23 = zext i1 %22 to i32
  %24 = call i32 @test_true(ptr noundef nonnull @.str, i32 noundef 1100, ptr noundef nonnull @.str.291, i32 noundef %23) #7
  %.not29 = icmp eq i32 %24, 0
  br i1 %.not29, label %45, label %25

25:                                               ; preds = %18
  %26 = call i64 @EC_POINT_point2oct(ptr noundef %13, ptr noundef %16, i32 noundef 6, ptr noundef null, i64 noundef 0, ptr noundef null) #7
  %27 = call i32 @test_size_t_ne(ptr noundef nonnull @.str, i32 noundef 1106, ptr noundef nonnull @.str.27, ptr noundef nonnull @.str.292, i64 noundef 0, i64 noundef %26) #7
  %.not30 = icmp eq i32 %27, 0
  br i1 %.not30, label %45, label %28

28:                                               ; preds = %25
  %29 = call noalias ptr @CRYPTO_malloc(i64 noundef %26, ptr noundef nonnull @.str, i32 noundef 1107) #7
  %30 = call i32 @test_ptr(ptr noundef nonnull @.str, i32 noundef 1107, ptr noundef nonnull @.str.293, ptr noundef %29) #7
  %.not31 = icmp eq i32 %30, 0
  br i1 %.not31, label %45, label %31

31:                                               ; preds = %28
  %32 = call i64 @EC_POINT_point2oct(ptr noundef %13, ptr noundef %16, i32 noundef 6, ptr noundef %29, i64 noundef %26, ptr noundef null) #7
  %33 = call i32 @test_size_t_eq(ptr noundef nonnull @.str, i32 noundef 1113, ptr noundef nonnull @.str.134, ptr noundef nonnull @.str.294, i64 noundef %26, i64 noundef %32) #7
  %.not32 = icmp eq i32 %33, 0
  br i1 %.not32, label %45, label %34

34:                                               ; preds = %31
  %35 = call i32 @EC_POINT_oct2point(ptr noundef %13, ptr noundef %16, ptr noundef %29, i64 noundef %26, ptr noundef null) #7
  %36 = icmp ne i32 %35, 0
  %37 = zext i1 %36 to i32
  %38 = call i32 @test_true(ptr noundef nonnull @.str, i32 noundef 1119, ptr noundef nonnull @.str.295, i32 noundef %37) #7
  %.not33 = icmp ne i32 %38, 0
  %39 = load i8, ptr %29, align 1, !tbaa !19
  %40 = xor i8 %39, 1
  store i8 %40, ptr %29, align 1, !tbaa !19
  %41 = call i32 @EC_POINT_oct2point(ptr noundef %13, ptr noundef %16, ptr noundef nonnull %29, i64 noundef %26, ptr noundef null) #7
  %42 = icmp ne i32 %41, 0
  %43 = zext i1 %42 to i32
  %44 = call i32 @test_false(ptr noundef nonnull @.str, i32 noundef 1124, ptr noundef nonnull @.str.295, i32 noundef %43) #7
  %.not34 = icmp ne i32 %44, 0
  %narrow = select i1 %.not34, i1 %.not33, i1 false
  %spec.select35 = zext i1 %narrow to i32
  br label %45

45:                                               ; preds = %34, %0, %7, %12, %15, %18, %25, %28, %31
  %.025 = phi ptr [ %16, %31 ], [ %16, %28 ], [ %16, %25 ], [ %16, %18 ], [ %16, %15 ], [ null, %12 ], [ null, %7 ], [ null, %0 ], [ %16, %34 ]
  %.024 = phi ptr [ %29, %31 ], [ %29, %28 ], [ null, %25 ], [ null, %18 ], [ null, %15 ], [ null, %12 ], [ null, %7 ], [ null, %0 ], [ %29, %34 ]
  %.023 = phi ptr [ %13, %31 ], [ %13, %28 ], [ %13, %25 ], [ %13, %18 ], [ %13, %15 ], [ %13, %12 ], [ null, %7 ], [ null, %0 ], [ %13, %34 ]
  %.0 = phi i32 [ 0, %31 ], [ 0, %28 ], [ 0, %25 ], [ 0, %18 ], [ 0, %15 ], [ 0, %12 ], [ 0, %7 ], [ 0, %0 ], [ %spec.select35, %34 ]
  %46 = load ptr, ptr %1, align 8, !tbaa !12
  call void @BN_free(ptr noundef %46) #7
  %47 = load ptr, ptr %2, align 8, !tbaa !12
  call void @BN_free(ptr noundef %47) #7
  call void @EC_GROUP_free(ptr noundef %.023) #7
  call void @EC_POINT_free(ptr noundef %.025) #7
  call void @CRYPTO_free(ptr noundef %.024, ptr noundef nonnull @.str, i32 noundef 1132) #7
  call void @llvm.lifetime.end.p0(i64 8, ptr nonnull %2) #7
  call void @llvm.lifetime.end.p0(i64 8, ptr nonnull %1) #7
  ret i32 %.0
}